target datalayout = "e-m:e-p270:32:32-p271:32:32-p272:64:64-i64:64-i128:128-f80:128-n8:16:32:64-S128"
target triple = "x86_64-pc-linux-gnu"

%"class.llvm::StringRef" = type { ptr, i64 }
%"class.llvm::RecordStreamer" = type { %"class.llvm::MCStreamer", ptr, %"class.llvm::StringMap", %"class.llvm::DenseMap" }
%"class.llvm::MCStreamer" = type { ptr, ptr, %"class.std::unique_ptr", %"class.std::vector", %"class.llvm::SmallVector", %"class.std::vector.2", ptr, i64, %"class.llvm::SmallVector.7", ptr, i32, i8, i8, ptr }
%"class.std::unique_ptr" = type { %"struct.std::__uniq_ptr_data" }
%"struct.std::__uniq_ptr_data" = type { %"class.std::__uniq_ptr_impl" }
%"class.std::__uniq_ptr_impl" = type { %"class.std::tuple" }
%"class.std::tuple" = type { %"struct.std::_Tuple_impl" }
%"struct.std::_Tuple_impl" = type { %"struct.std::_Head_base.1" }
%"struct.std::_Head_base.1" = type { ptr }
%"class.std::vector" = type { %"struct.std::_Vector_base" }
%"struct.std::_Vector_base" = type { %"struct.std::_Vector_base<llvm::MCDwarfFrameInfo, std::allocator<llvm::MCDwarfFrameInfo>>::_Vector_impl" }
%"struct.std::_Vector_base<llvm::MCDwarfFrameInfo, std::allocator<llvm::MCDwarfFrameInfo>>::_Vector_impl" = type { %"struct.std::_Vector_base<llvm::MCDwarfFrameInfo, std::allocator<llvm::MCDwarfFrameInfo>>::_Vector_impl_data" }
%"struct.std::_Vector_base<llvm::MCDwarfFrameInfo, std::allocator<llvm::MCDwarfFrameInfo>>::_Vector_impl_data" = type { ptr, ptr, ptr }
%"class.llvm::SmallVector" = type { %"class.llvm::SmallVectorImpl", %"struct.llvm::SmallVectorStorage" }
%"class.llvm::SmallVectorImpl" = type { %"class.llvm::SmallVectorTemplateBase" }
%"class.llvm::SmallVectorTemplateBase" = type { %"class.llvm::SmallVectorTemplateCommon" }
%"class.llvm::SmallVectorTemplateCommon" = type { %"class.llvm::SmallVectorBase" }
%"class.llvm::SmallVectorBase" = type { ptr, i32, i32 }
%"struct.llvm::SmallVectorStorage" = type { [16 x i8] }
%"class.std::vector.2" = type { %"struct.std::_Vector_base.3" }
%"struct.std::_Vector_base.3" = type { %"struct.std::_Vector_base<std::unique_ptr<llvm::WinEH::FrameInfo>, std::allocator<std::unique_ptr<llvm::WinEH::FrameInfo>>>::_Vector_impl" }
%"struct.std::_Vector_base<std::unique_ptr<llvm::WinEH::FrameInfo>, std::allocator<std::unique_ptr<llvm::WinEH::FrameInfo>>>::_Vector_impl" = type { %"struct.std::_Vector_base<std::unique_ptr<llvm::WinEH::FrameInfo>, std::allocator<std::unique_ptr<llvm::WinEH::FrameInfo>>>::_Vector_impl_data" }
%"struct.std::_Vector_base<std::unique_ptr<llvm::WinEH::FrameInfo>, std::allocator<std::unique_ptr<llvm::WinEH::FrameInfo>>>::_Vector_impl_data" = type { ptr, ptr, ptr }
%"class.llvm::SmallVector.7" = type { %"class.llvm::SmallVectorImpl.8", %"struct.llvm::SmallVectorStorage.11" }
%"class.llvm::SmallVectorImpl.8" = type { %"class.llvm::SmallVectorTemplateBase.9" }
%"class.llvm::SmallVectorTemplateBase.9" = type { %"class.llvm::SmallVectorTemplateCommon.10" }
%"class.llvm::SmallVectorTemplateCommon.10" = type { %"class.llvm::SmallVectorBase" }
%"struct.llvm::SmallVectorStorage.11" = type { [128 x i8] }
%"class.llvm::StringMap" = type { %"class.llvm::StringMapImpl" }
%"class.llvm::StringMapImpl" = type { ptr, i32, i32, i32, i32 }
%"class.llvm::DenseMap" = type <{ ptr, i32, i32, i32, [4 x i8] }>
%"class.llvm::iterator_facade_base<llvm::StringMapIterator<llvm::RecordStreamer::State>, std::forward_iterator_tag, llvm::StringMapEntry<llvm::RecordStreamer::State>>::PointerProxy" = type { ptr }
%"struct.std::pair.304" = type <{ %"class.llvm::StringMapIterator", i8, [7 x i8] }>
%"class.llvm::StringMapIterator" = type { %"class.llvm::StringMapIterBase.232" }
%"class.llvm::StringMapIterBase.232" = type { ptr }
%"class.llvm::StringMapEntryStorage" = type <{ %"class.llvm::StringMapEntryBase", i32, [4 x i8] }>
%"class.llvm::StringMapEntryBase" = type { i64 }
%"class.llvm::MCSymbol" = type { ptr, i64, i32, %union.anon }
%union.anon = type { i64 }
%"union.llvm::MCSymbol::NameEntryStorageTy" = type { ptr }
%"class.llvm::StringMapEntry.299" = type { %"class.llvm::StringMapEntryStorage.300" }
%"class.llvm::StringMapEntryStorage.300" = type { %"class.llvm::StringMapEntryBase", %"struct.llvm::MCSymbolTableValue" }
%"struct.llvm::MCSymbolTableValue" = type <{ ptr, i32, i8, [3 x i8] }>

; Function Attrs: mustprogress nounwind uwtable
define linkonce_odr hidden void @_ZN4llvm20iterator_facade_baseINS_17StringMapIteratorINS_14RecordStreamer5StateEEESt20forward_iterator_tagNS_14StringMapEntryIS3_EElPS7_RS7_E12PointerProxyC2IS9_EEOT_(ptr noundef nonnull align 8 dereferenceable(8) %0, ptr noundef nonnull align 8 dereferenceable(16) %1) unnamed_addr #0 comdat align 2 {
  %3 = alloca ptr, align 8
  %4 = alloca ptr, align 8
  store ptr %0, ptr %3, align 8
  store ptr %1, ptr %4, align 8
  %5 = load ptr, ptr %3, align 8
  %6 = getelementptr inbounds nuw %"class.llvm::iterator_facade_base<llvm::StringMapIterator<llvm::RecordStreamer::State>, std::forward_iterator_tag, llvm::StringMapEntry<llvm::RecordStreamer::State>>::PointerProxy", ptr %5, i32 0, i32 0
  %7 = load ptr, ptr %4, align 8
  store ptr %7, ptr %6, align 8
  ret void
}

; Function Attrs: mustprogress nounwind uwtable
define linkonce_odr hidden noundef nonnull align 8 dereferenceable(16) ptr @_ZNK4llvm17StringMapIteratorINS_14RecordStreamer5StateEEdeEv(ptr noundef nonnull align 8 dereferenceable(8) %0) #0 comdat align 2 {
  %2 = alloca ptr, align 8
  store ptr %0, ptr %2, align 8
  %3 = load ptr, ptr %2, align 8
  %4 = getelementptr inbounds nuw %"class.llvm::StringMapIterBase.232", ptr %3, i32 0, i32 0
  %5 = load ptr, ptr %4, align 8
  %6 = load ptr, ptr %5, align 8
  ret ptr %6
}

; Function Attrs: mustprogress nounwind uwtable
define linkonce_odr hidden void @_ZN4llvm9StringRefC2EPKcm(ptr noundef nonnull align 8 dereferenceable(16) %0, ptr noundef %1, i64 noundef %2) unnamed_addr #0 comdat align 2 {
  %4 = alloca ptr, align 8
  %5 = alloca ptr, align 8
  %6 = alloca i64, align 8
  store ptr %0, ptr %4, align 8
  store ptr %1, ptr %5, align 8
  store i64 %2, ptr %6, align 8
  %7 = load ptr, ptr %4, align 8
  %8 = getelementptr inbounds nuw %"class.llvm::StringRef", ptr %7, i32 0, i32 0
  %9 = load ptr, ptr %5, align 8
  store ptr %9, ptr %8, align 8
  %10 = getelementptr inbounds nuw %"class.llvm::StringRef", ptr %7, i32 0, i32 1
  %11 = load i64, ptr %6, align 8
  store i64 %11, ptr %10, align 8
  ret void
}

; Function Attrs: mustprogress nounwind uwtable
define linkonce_odr hidden noundef i64 @_ZNK4llvm18StringMapEntryBase12getKeyLengthEv(ptr noundef nonnull align 8 dereferenceable(8) %0) #0 comdat align 2 {
  %2 = alloca ptr, align 8
  store ptr %0, ptr %2, align 8
  %3 = load ptr, ptr %2, align 8
  %4 = getelementptr inbounds nuw %"class.llvm::StringMapEntryBase", ptr %3, i32 0, i32 0
  %5 = load i64, ptr %4, align 8
  ret i64 %5
}

; Function Attrs: mustprogress nounwind uwtable
define linkonce_odr hidden noundef ptr @_ZNK4llvm14StringMapEntryINS_18MCSymbolTableValueEE10getKeyDataEv(ptr noundef nonnull align 8 dereferenceable(24) %0) #0 comdat align 2 {
  %2 = alloca ptr, align 8
  store ptr %0, ptr %2, align 8
  %3 = load ptr, ptr %2, align 8
  %4 = getelementptr inbounds %"class.llvm::StringMapEntry.299", ptr %3, i64 1
  ret ptr %4
}

; Function Attrs: mustprogress nounwind uwtable
define linkonce_odr hidden noundef nonnull align 8 dereferenceable(8) ptr @_ZN4llvm8MCSymbol15getNameEntryPtrEv(ptr noundef nonnull align 8 dereferenceable(32) %0) #0 comdat align 2 {
  %2 = alloca ptr, align 8
  %3 = alloca ptr, align 8
  store ptr %0, ptr %2, align 8
  %4 = load ptr, ptr %2, align 8
  store ptr %4, ptr %3, align 8
  %5 = load ptr, ptr %3, align 8
  %6 = getelementptr inbounds %"union.llvm::MCSymbol::NameEntryStorageTy", ptr %5, i64 -1
  ret ptr %6
}

; Function Attrs: mustprogress nounwind uwtable
define linkonce_odr hidden noundef ptr @_ZNK4llvm20iterator_facade_baseINS_17StringMapIteratorINS_14RecordStreamer5StateEEESt20forward_iterator_tagNS_14StringMapEntryIS3_EElPS7_RS7_E12PointerProxyptEv(ptr noundef nonnull align 8 dereferenceable(8) %0) #0 comdat align 2 {
  %2 = alloca ptr, align 8
  store ptr %0, ptr %2, align 8
  %3 = load ptr, ptr %2, align 8
  %4 = getelementptr inbounds nuw %"class.llvm::iterator_facade_base<llvm::StringMapIterator<llvm::RecordStreamer::State>, std::forward_iterator_tag, llvm::StringMapEntry<llvm::RecordStreamer::State>>::PointerProxy", ptr %3, i32 0, i32 0
  %5 = load ptr, ptr %4, align 8
  ret ptr %5
}

; Function Attrs: mustprogress nounwind uwtable
define linkonce_odr hidden ptr @_ZNK4llvm20iterator_facade_baseINS_17StringMapIteratorINS_14RecordStreamer5StateEEESt20forward_iterator_tagNS_14StringMapEntryIS3_EElPS7_RS7_EptEv(ptr noundef nonnull align 1 dereferenceable(1) %0) #0 comdat align 2 {
  %2 = alloca %"class.llvm::iterator_facade_base<llvm::StringMapIterator<llvm::RecordStreamer::State>, std::forward_iterator_tag, llvm::StringMapEntry<llvm::RecordStreamer::State>>::PointerProxy", align 8
  %3 = alloca ptr, align 8
  store ptr %0, ptr %3, align 8
  %4 = load ptr, ptr %3, align 8
  %5 = call noundef nonnull align 8 dereferenceable(16) ptr @_ZNK4llvm17StringMapIteratorINS_14RecordStreamer5StateEEdeEv(ptr noundef nonnull align 8 dereferenceable(8) %4)
  call void @_ZN4llvm20iterator_facade_baseINS_17StringMapIteratorINS_14RecordStreamer5StateEEESt20forward_iterator_tagNS_14StringMapEntryIS3_EElPS7_RS7_E12PointerProxyC2IS9_EEOT_(ptr noundef nonnull align 8 dereferenceable(8) %2, ptr noundef nonnull align 8 dereferenceable(16) %5)
  %6 = getelementptr inbounds nuw %"class.llvm::iterator_facade_base<llvm::StringMapIterator<llvm::RecordStreamer::State>, std::forward_iterator_tag, llvm::StringMapEntry<llvm::RecordStreamer::State>>::PointerProxy", ptr %2, i32 0, i32 0
  %7 = load ptr, ptr %6, align 8
  ret ptr %7
}

; Function Attrs: mustprogress nounwind uwtable
define linkonce_odr hidden { ptr, i8 } @_ZN4llvm9StringMapINS_14RecordStreamer5StateENS_15MallocAllocatorEE11try_emplaceIJEEESt4pairINS_17StringMapIteratorIS2_EEbENS_9StringRefEDpOT_(ptr noundef nonnull align 8 dereferenceable(24) %0, ptr %1, i64 %2) #0 comdat align 2 {
  %4 = alloca %"struct.std::pair.304", align 8
  %5 = alloca %"class.llvm::StringRef", align 8
  %6 = alloca ptr, align 8
  %7 = alloca %"class.llvm::StringRef", align 8
  %8 = alloca %"class.llvm::StringRef", align 8
  %9 = alloca { ptr, i8 }, align 8
  %10 = getelementptr inbounds nuw { ptr, i64 }, ptr %5, i32 0, i32 0
  store ptr %1, ptr %10, align 8
  %11 = getelementptr inbounds nuw { ptr, i64 }, ptr %5, i32 0, i32 1
  store i64 %2, ptr %11, align 8
  store ptr %0, ptr %6, align 8
  %12 = load ptr, ptr %6, align 8
  call void @llvm.memcpy.p0.p0.i64(ptr align 8 %7, ptr align 8 %5, i64 16, i1 false)
  call void @llvm.memcpy.p0.p0.i64(ptr align 8 %8, ptr align 8 %5, i64 16, i1 false)
  %13 = getelementptr inbounds nuw { ptr, i64 }, ptr %8, i32 0, i32 0
  %14 = load ptr, ptr %13, align 8
  %15 = getelementptr inbounds nuw { ptr, i64 }, ptr %8, i32 0, i32 1
  %16 = load i64, ptr %15, align 8
  %17 = call noundef i32 @_ZN4llvm13StringMapImpl4hashENS_9StringRefE(ptr %14, i64 %16)
  %18 = getelementptr inbounds nuw { ptr, i64 }, ptr %7, i32 0, i32 0
  %19 = load ptr, ptr %18, align 8
  %20 = getelementptr inbounds nuw { ptr, i64 }, ptr %7, i32 0, i32 1
  %21 = load i64, ptr %20, align 8
  %22 = call { ptr, i8 } @_ZN4llvm9StringMapINS_14RecordStreamer5StateENS_15MallocAllocatorEE21try_emplace_with_hashIJEEESt4pairINS_17StringMapIteratorIS2_EEbENS_9StringRefEjDpOT_(ptr noundef nonnull align 8 dereferenceable(24) %12, ptr %19, i64 %21, i32 noundef %17)
  store { ptr, i8 } %22, ptr %9, align 8
  call void @llvm.memcpy.p0.p0.i64(ptr align 8 %4, ptr align 8 %9, i64 9, i1 false)
  %23 = load { ptr, i8 }, ptr %4, align 8
  ret { ptr, i8 } %23
}

; Function Attrs: mustprogress nounwind uwtable
define linkonce_odr hidden { ptr, i64 } @_ZNK4llvm14StringMapEntryINS_18MCSymbolTableValueEE5firstEv(ptr noundef nonnull align 8 dereferenceable(24) %0) #0 comdat align 2 {
  %2 = alloca %"class.llvm::StringRef", align 8
  %3 = alloca ptr, align 8
  store ptr %0, ptr %3, align 8
  %4 = load ptr, ptr %3, align 8
  %5 = call noundef ptr @_ZNK4llvm14StringMapEntryINS_18MCSymbolTableValueEE10getKeyDataEv(ptr noundef nonnull align 8 dereferenceable(24) %4)
  %6 = call noundef i64 @_ZNK4llvm18StringMapEntryBase12getKeyLengthEv(ptr noundef nonnull align 8 dereferenceable(8) %4)
  call void @_ZN4llvm9StringRefC2EPKcm(ptr noundef nonnull align 8 dereferenceable(16) %2, ptr noundef %5, i64 noundef %6)
  %7 = load { ptr, i64 }, ptr %2, align 8
  ret { ptr, i64 } %7
}

; Function Attrs: mustprogress nounwind uwtable
define linkonce_odr hidden noundef nonnull align 8 dereferenceable(8) ptr @_ZNK4llvm8MCSymbol15getNameEntryPtrEv(ptr noundef nonnull align 8 dereferenceable(32) %0) #0 comdat align 2 {
  %2 = alloca ptr, align 8
  store ptr %0, ptr %2, align 8
  %3 = load ptr, ptr %2, align 8
  %4 = call noundef nonnull align 8 dereferenceable(8) ptr @_ZN4llvm8MCSymbol15getNameEntryPtrEv(ptr noundef nonnull align 8 dereferenceable(32) %3)
  ret ptr %4
}

; Function Attrs: mustprogress nounwind uwtable
define linkonce_odr hidden void @_ZN4llvm9StringRefC2Ev(ptr noundef nonnull align 8 dereferenceable(16) %0) unnamed_addr #0 comdat align 2 {
  %2 = alloca ptr, align 8
  store ptr %0, ptr %2, align 8
  %3 = load ptr, ptr %2, align 8
  %4 = getelementptr inbounds nuw %"class.llvm::StringRef", ptr %3, i32 0, i32 0
  store ptr null, ptr %4, align 8
  %5 = getelementptr inbounds nuw %"class.llvm::StringRef", ptr %3, i32 0, i32 1
  store i64 0, ptr %5, align 8
  ret void
}

; Function Attrs: mustprogress nounwind uwtable
define linkonce_odr hidden noundef nonnull align 4 dereferenceable(4) ptr @_ZN4llvm9StringMapINS_14RecordStreamer5StateENS_15MallocAllocatorEEixENS_9StringRefE(ptr noundef nonnull align 8 dereferenceable(24) %0, ptr %1, i64 %2) #0 comdat align 2 {
  %4 = alloca %"class.llvm::StringRef", align 8
  %5 = alloca ptr, align 8
  %6 = alloca %"class.llvm::iterator_facade_base<llvm::StringMapIterator<llvm::RecordStreamer::State>, std::forward_iterator_tag, llvm::StringMapEntry<llvm::RecordStreamer::State>>::PointerProxy", align 8
  %7 = alloca %"struct.std::pair.304", align 8
  %8 = alloca %"class.llvm::StringRef", align 8
  %9 = alloca { ptr, i8 }, align 8
  %10 = getelementptr inbounds nuw { ptr, i64 }, ptr %4, i32 0, i32 0
  store ptr %1, ptr %10, align 8
  %11 = getelementptr inbounds nuw { ptr, i64 }, ptr %4, i32 0, i32 1
  store i64 %2, ptr %11, align 8
  store ptr %0, ptr %5, align 8
  %12 = load ptr, ptr %5, align 8
  call void @llvm.memcpy.p0.p0.i64(ptr align 8 %8, ptr align 8 %4, i64 16, i1 false)
  %13 = getelementptr inbounds nuw { ptr, i64 }, ptr %8, i32 0, i32 0
  %14 = load ptr, ptr %13, align 8
  %15 = getelementptr inbounds nuw { ptr, i64 }, ptr %8, i32 0, i32 1
  %16 = load i64, ptr %15, align 8
  %17 = call { ptr, i8 } @_ZN4llvm9StringMapINS_14RecordStreamer5StateENS_15MallocAllocatorEE11try_emplaceIJEEESt4pairINS_17StringMapIteratorIS2_EEbENS_9StringRefEDpOT_(ptr noundef nonnull align 8 dereferenceable(24) %12, ptr %14, i64 %16)
  store { ptr, i8 } %17, ptr %9, align 8
  call void @llvm.memcpy.p0.p0.i64(ptr align 8 %7, ptr align 8 %9, i64 9, i1 false)
  %18 = getelementptr inbounds nuw %"struct.std::pair.304", ptr %7, i32 0, i32 0
  %19 = call ptr @_ZNK4llvm20iterator_facade_baseINS_17StringMapIteratorINS_14RecordStreamer5StateEEESt20forward_iterator_tagNS_14StringMapEntryIS3_EElPS7_RS7_EptEv(ptr noundef nonnull align 1 dereferenceable(1) %18)
  %20 = getelementptr inbounds nuw %"class.llvm::iterator_facade_base<llvm::StringMapIterator<llvm::RecordStreamer::State>, std::forward_iterator_tag, llvm::StringMapEntry<llvm::RecordStreamer::State>>::PointerProxy", ptr %6, i32 0, i32 0
  store ptr %19, ptr %20, align 8
  %21 = call noundef ptr @_ZNK4llvm20iterator_facade_baseINS_17StringMapIteratorINS_14RecordStreamer5StateEEESt20forward_iterator_tagNS_14StringMapEntryIS3_EElPS7_RS7_E12PointerProxyptEv(ptr noundef nonnull align 8 dereferenceable(8) %6)
  %22 = getelementptr inbounds nuw %"class.llvm::StringMapEntryStorage", ptr %21, i32 0, i32 1
  ret ptr %22
}

; Function Attrs: mustprogress nounwind uwtable
define linkonce_odr hidden { ptr, i64 } @_ZNK4llvm8MCSymbol7getNameEv(ptr noundef nonnull align 8 dereferenceable(32) %0) #0 comdat align 2 {
  %2 = alloca %"class.llvm::StringRef", align 8
  %3 = alloca ptr, align 8
  store ptr %0, ptr %3, align 8
  %4 = load ptr, ptr %3, align 8
  %5 = getelementptr inbounds nuw %"class.llvm::MCSymbol", ptr %4, i32 0, i32 1
  %6 = load i64, ptr %5, align 8
  %7 = and i64 %6, 1
  %8 = trunc i64 %7 to i32
  %9 = icmp ne i32 %8, 0
  br i1 %9, label %11, label %10

10:                                               ; preds = %1
  call void @llvm.memset.p0.i64(ptr align 8 %2, i8 0, i64 16, i1 false)
  call void @_ZN4llvm9StringRefC2Ev(ptr noundef nonnull align 8 dereferenceable(16) %2) #9
  br label %19

11:                                               ; preds = %1
  %12 = call noundef nonnull align 8 dereferenceable(8) ptr @_ZNK4llvm8MCSymbol15getNameEntryPtrEv(ptr noundef nonnull align 8 dereferenceable(32) %4)
  %13 = load ptr, ptr %12, align 8
  %14 = call { ptr, i64 } @_ZNK4llvm14StringMapEntryINS_18MCSymbolTableValueEE5firstEv(ptr noundef nonnull align 8 dereferenceable(24) %13)
  %15 = getelementptr inbounds nuw { ptr, i64 }, ptr %2, i32 0, i32 0
  %16 = extractvalue { ptr, i64 } %14, 0
  store ptr %16, ptr %15, align 8
  %17 = getelementptr inbounds nuw { ptr, i64 }, ptr %2, i32 0, i32 1
  %18 = extractvalue { ptr, i64 } %14, 1
  store i64 %18, ptr %17, align 8
  br label %19

19:                                               ; preds = %11, %10
  %20 = load { ptr, i64 }, ptr %2, align 8
  ret { ptr, i64 } %20
}

; Function Attrs: mustprogress nounwind uwtable
define dso_local void @_ZN4llvm14RecordStreamer11markDefinedERKNS_8MCSymbolE(ptr noundef nonnull align 8 dereferenceable(344) %0, ptr noundef nonnull align 8 dereferenceable(32) %1) #0 align 2 {
  %3 = alloca ptr, align 8
  %4 = alloca ptr, align 8
  %5 = alloca ptr, align 8
  %6 = alloca %"class.llvm::StringRef", align 8
  store ptr %0, ptr %3, align 8
  store ptr %1, ptr %4, align 8
  %7 = load ptr, ptr %3, align 8
  %8 = getelementptr inbounds nuw %"class.llvm::RecordStreamer", ptr %7, i32 0, i32 2
  %9 = load ptr, ptr %4, align 8
  %10 = call { ptr, i64 } @_ZNK4llvm8MCSymbol7getNameEv(ptr noundef nonnull align 8 dereferenceable(32) %9)
  %11 = getelementptr inbounds nuw { ptr, i64 }, ptr %6, i32 0, i32 0
  %12 = extractvalue { ptr, i64 } %10, 0
  store ptr %12, ptr %11, align 8
  %13 = getelementptr inbounds nuw { ptr, i64 }, ptr %6, i32 0, i32 1
  %14 = extractvalue { ptr, i64 } %10, 1
  store i64 %14, ptr %13, align 8
  %15 = getelementptr inbounds nuw { ptr, i64 }, ptr %6, i32 0, i32 0
  %16 = load ptr, ptr %15, align 8
  %17 = getelementptr inbounds nuw { ptr, i64 }, ptr %6, i32 0, i32 1
  %18 = load i64, ptr %17, align 8
  %19 = call noundef nonnull align 4 dereferenceable(4) ptr @_ZN4llvm9StringMapINS_14RecordStreamer5StateENS_15MallocAllocatorEEixENS_9StringRefE(ptr noundef nonnull align 8 dereferenceable(24) %8, ptr %16, i64 %18)
  store ptr %19, ptr %5, align 8
  %20 = load ptr, ptr %5, align 8
  %21 = load i32, ptr %20, align 4
  switch i32 %21, label %29 [
    i32 3, label %22
    i32 1, label %22
    i32 0, label %24
    i32 2, label %24
    i32 5, label %24
    i32 4, label %26
    i32 6, label %27
  ]

22:                                               ; preds = %2, %2
  %23 = load ptr, ptr %5, align 8
  store i32 3, ptr %23, align 4
  br label %29

24:                                               ; preds = %2, %2, %2
  %25 = load ptr, ptr %5, align 8
  store i32 2, ptr %25, align 4
  br label %29

26:                                               ; preds = %2
  br label %29

27:                                               ; preds = %2
  %28 = load ptr, ptr %5, align 8
  store i32 4, ptr %28, align 4
  br label %29

29:                                               ; preds = %27, %26, %24, %22, %2
  ret void
}

; Function Attrs: mustprogress nounwind uwtable
define dso_local void @_ZN4llvm14RecordStreamer14emitAssignmentEPNS_8MCSymbolEPKNS_6MCExprE(ptr noundef nonnull align 8 dereferenceable(344) %0, ptr noundef %1, ptr noundef %2) unnamed_addr #0 align 2 {
  %4 = alloca ptr, align 8
  %5 = alloca ptr, align 8
  %6 = alloca ptr, align 8
  store ptr %0, ptr %4, align 8
  store ptr %1, ptr %5, align 8
  store ptr %2, ptr %6, align 8
  %7 = load ptr, ptr %4, align 8
  %8 = load ptr, ptr %5, align 8
  call void @_ZN4llvm14RecordStreamer11markDefinedERKNS_8MCSymbolE(ptr noundef nonnull align 8 dereferenceable(344) %7, ptr noundef nonnull align 8 dereferenceable(32) %8)
  %9 = load ptr, ptr %5, align 8
  %10 = load ptr, ptr %6, align 8
  call void @_ZN4llvm10MCStreamer14emitAssignmentEPNS_8MCSymbolEPKNS_6MCExprE(ptr noundef nonnull align 8 dereferenceable(288) %7, ptr noundef %9, ptr noundef %10)
  ret void
}