; Function Attrs: mustprogress nounwind uwtable
define dso_local void @_ZN4llvm14RecordStreamer14emitAssignmentEPNS_8MCSymbolEPKNS_6MCExprE(ptr noundef nonnull align 8 dereferenceable(344) %0, ptr noundef %1, ptr noundef %2) unnamed_addr #0 align 2 {
  %4 = getelementptr inbounds nuw i8, ptr %0, i64 296
  %5 = getelementptr inbounds nuw i8, ptr %1, i64 8
  %6 = load i64, ptr %5, align 8
  %7 = and i64 %6, 1
  %.not.i.i = icmp eq i64 %7, 0
  br i1 %.not.i.i, label %_ZNK4llvm8MCSymbol7getNameEv.exit.i, label %8

8:                                                ; preds = %3
  %9 = getelementptr inbounds i8, ptr %1, i64 -8
  %10 = load ptr, ptr %9, align 8
  %11 = getelementptr inbounds i8, ptr %10, i64 24
  %12 = load i64, ptr %10, align 8
  br label %_ZNK4llvm8MCSymbol7getNameEv.exit.i

_ZNK4llvm8MCSymbol7getNameEv.exit.i:              ; preds = %8, %3
  %.sroa.0.0.i.i = phi ptr [ %11, %8 ], [ null, %3 ]
  %.sroa.4.0.i.i = phi i64 [ %12, %8 ], [ 0, %3 ]
  %13 = tail call noundef i32 @_ZN4llvm13StringMapImpl4hashENS_9StringRefE(ptr %.sroa.0.0.i.i, i64 %.sroa.4.0.i.i) #15
  %14 = tail call { ptr, i8 } @_ZN4llvm9StringMapINS_14RecordStreamer5StateENS_15MallocAllocatorEE21try_emplace_with_hashIJEEESt4pairINS_17StringMapIteratorIS2_EEbENS_9StringRefEjDpOT_(ptr noundef nonnull align 8 dereferenceable(24) %4, ptr %.sroa.0.0.i.i, i64 %.sroa.4.0.i.i, i32 noundef %13)
  %.fca.0.extract.i.i = extractvalue { ptr, i8 } %14, 0
  %15 = load ptr, ptr %.fca.0.extract.i.i, align 8
  %16 = getelementptr inbounds nuw i8, ptr %15, i64 8
  %17 = load i32, ptr %16, align 4
  %18 = icmp ult i32 %17, 7
  br i1 %18, label %switch.hole_check, label %_ZN4llvm14RecordStreamer11markDefinedERKNS_8MCSymbolE.exit

switch.hole_check:                                ; preds = %_ZNK4llvm8MCSymbol7getNameEv.exit.i
  %switch.maskindex = trunc nuw i32 %17 to i8
  %switch.shifted = lshr i8 111, %switch.maskindex
  %switch.lobit = trunc i8 %switch.shifted to i1
  br i1 %switch.lobit, label %switch.lookup, label %_ZN4llvm14RecordStreamer11markDefinedERKNS_8MCSymbolE.exit

switch.lookup:                                    ; preds = %switch.hole_check
  %19 = zext nneg i32 %17 to i64
  %switch.gep = getelementptr inbounds [7 x i32], ptr @switch.table._ZN4llvm14RecordStreamer21flushSymverDirectivesEv.2, i64 0, i64 %19
  %switch.load = load i32, ptr %switch.gep, align 4
  store i32 %switch.load, ptr %16, align 4
  br label %_ZN4llvm14RecordStreamer11markDefinedERKNS_8MCSymbolE.exit

_ZN4llvm14RecordStreamer11markDefinedERKNS_8MCSymbolE.exit: ; preds = %switch.hole_check, %_ZNK4llvm8MCSymbol7getNameEv.exit.i, %switch.lookup
  tail call void @_ZN4llvm10MCStreamer14emitAssignmentEPNS_8MCSymbolEPKNS_6MCExprE(ptr noundef nonnull align 8 dereferenceable(288) %0, ptr noundef nonnull %1, ptr noundef %2) #15
  ret void
}